(dp1
S'failed'
p2
(lp3
sS'source_names'
p4
(lp5
S'.'
asS'ids'
p6
(dp7
I1
(S'/Users/hkeemink/Documents/Eneco/Intro_to_programming/tests/test_game.py'
S'tests.test_game'
S'testGame.test_roll_zero_get_zero'
tp8
sI2
(S'/Users/hkeemink/Documents/Eneco/Intro_to_programming/tests/test_game.py'
S'tests.test_game'
S'testGame.test_roll_zero_get_one'
tp9
ss.